; Function Attrs: mustprogress uwtable
define void @usearch_setOffset_75(ptr noundef readonly %strsrch, i32 noundef %position, ptr noundef %status) local_unnamed_addr #0 {
entry:
  %0 = load i32, ptr %status, align 4
  %cmp.i = icmp slt i32 %0, 1
  %tobool1 = icmp ne ptr %strsrch, null
  %or.cond = and i1 %tobool1, %cmp.i
  br i1 %or.cond, label %if.then, label %if.end8

if.then:                                          ; preds = %entry
  %1 = load ptr, ptr %strsrch, align 8
  %textLength = getelementptr inbounds i8, ptr %1, i64 8
  %2 = load i32, ptr %textLength, align 8
  %cmp.i9 = icmp sgt i32 %position, -1
  %cmp1.i = icmp sge i32 %2, %position
  %.not = and i1 %cmp.i9, %cmp1.i
  br i1 %.not, label %if.else, label %if.then4

if.then4:                                         ; preds = %if.then
  store i32 8, ptr %status, align 4
  br label %if.end

if.else:                                          ; preds = %if.then
  %textIter = getelementptr inbounds i8, ptr %strsrch, i64 3144
  %3 = load ptr, ptr %textIter, align 8
  tail call void @ucol_setOffset_75(ptr noundef %3, i32 noundef %position, ptr noundef nonnull %status)
  br label %if.end

if.end:                                           ; preds = %if.else, %if.then4
  %4 = load ptr, ptr %strsrch, align 8
  %matchedIndex = getelementptr inbounds i8, ptr %4, i64 32
  store i32 -1, ptr %matchedIndex, align 8
  %5 = load ptr, ptr %strsrch, align 8
  %matchedLength = getelementptr inbounds i8, ptr %5, i64 36
  store i32 0, ptr %matchedLength, align 4
  %6 = load ptr, ptr %strsrch, align 8
  %reset = getelementptr inbounds i8, ptr %6, i64 41
  store i8 0, ptr %reset, align 1
  br label %if.end8

if.end8:                                          ; preds = %if.end, %entry
  ret void
}